Certificate:
    Data:
        Version: 3 (0x2)
        Serial Number:
            98:33:c9:a8:00:00:00:00:56:54:bc:6e
    Signature Algorithm: sha256WithRSAEncryption
        Issuer: C=HR, O=Financijska agencija, CN=Fina Root CA
        Validity
            Not Before: Nov 24 19:07:30 2015 GMT
            Not After : Nov 24 19:37:30 2035 GMT
        Subject: C=HR, O=Financijska agencija, CN=Fina Root CA
        Subject Public Key Info:
            Public Key Algorithm: rsaEncryption
                Public-Key: (4096 bit)
                Modulus:
                    00:b4:73:d2:d6:65:d3:02:ef:58:3a:f4:82:82:d3:
                    a7:e0:8a:60:b2:3a:f5:b1:65:38:a7:24:0e:21:6b:
                    7d:e9:a0:9d:33:a2:74:cd:ae:91:ba:94:b5:cc:c6:
                    80:b5:71:df:48:71:ca:75:4b:a7:bf:ff:26:eb:84:
                    fe:b9:72:16:c8:c2:7e:86:d4:bf:af:ee:63:35:b9:
                    c0:e4:da:05:4f:b8:48:9e:22:28:ff:55:05:23:6b:
                    81:4e:b3:17:11:2c:2a:25:1f:e4:e1:df:61:c8:3c:
                    f2:56:69:d0:55:7d:96:10:b2:a8:7b:56:90:5b:a6:
                    5e:53:8b:41:e3:c7:87:c7:31:bd:34:39:ec:19:21:
                    d9:80:c4:e8:0d:db:da:03:0c:00:f4:aa:b5:82:06:
                    25:0c:c5:d9:1a:62:9d:fd:0a:49:05:fc:1c:be:93:
                    46:fc:ce:89:91:ff:cd:cc:5f:48:5f:dc:38:d0:75:
                    6f:d2:2d:ab:cc:22:12:78:88:12:1f:e0:d5:4e:77:
                    bc:2c:89:4d:76:7a:88:9b:5d:07:da:b3:67:98:d1:
                    39:ce:7a:46:ab:cf:f6:7d:57:25:13:fa:84:c4:03:
                    70:af:0c:76:0c:d2:40:24:7c:59:df:77:37:59:50:
                    b1:25:46:4e:42:1d:08:22:09:72:55:c4:42:ea:6f:
                    6f:65:59:d4:4e:e0:3d:a3:ab:70:7c:e6:09:30:55:
                    76:62:89:f3:6f:d2:0a:a6:b3:6e:19:3d:96:86:7a:
                    66:94:cd:f2:cc:7a:f0:07:08:b3:69:ae:1b:ff:1c:
                    71:18:a2:44:f9:db:d6:0d:84:10:81:74:49:61:62:
                    d7:10:f0:01:a6:45:c0:b5:d0:52:f4:51:86:3d:e2:
                    f7:16:29:5a:fa:4a:9e:27:4b:8e:46:f1:72:3e:a7:
                    f5:a4:0c:e0:0b:17:9a:22:ff:f9:7e:ab:35:8e:01:
                    84:d5:75:93:7f:e6:75:a8:7a:64:de:62:3a:02:47:
                    1a:a0:23:c4:4c:3f:d0:dc:4e:33:e7:6c:bb:fa:f6:
                    18:10:2b:34:30:5f:c7:33:50:99:02:e9:b1:59:46:
                    55:65:a6:ba:a4:83:18:8b:cd:e1:f1:ca:18:e2:d9:
                    20:e6:b7:84:87:1f:0b:56:7c:4d:31:54:26:f2:99:
                    56:c8:a6:59:d6:85:33:f2:90:cc:28:5a:c8:6c:a4:
                    cb:a6:47:46:c4:9a:55:39:84:64:8d:77:e7:0a:3d:
                    c3:d0:12:f7:76:a8:cc:1c:b3:1f:58:85:3a:c4:36:
                    8d:ec:9a:ec:0e:e7:1c:c9:9f:4f:fb:d0:7a:07:0c:
                    c6:05:b0:ab:8d:ba:72:5d:4e:23:d9:6f:0c:5c:f8:
                    a6:72:d1
                Exponent: 65537 (0x10001)
        X509v3 extensions:
            X509v3 Key Usage: critical
                Certificate Sign, CRL Sign
            X509v3 Basic Constraints: critical
                CA:TRUE
            X509v3 Authority Key Identifier: 
                keyid:FE:11:A2:6C:10:EE:DE:E2:03:B8:55:82:4E:22:3C:86:E4:3E:6B:54

            X509v3 Subject Key Identifier: 
                FE:11:A2:6C:10:EE:DE:E2:03:B8:55:82:4E:22:3C:86:E4:3E:6B:54
    Signature Algorithm: sha256WithRSAEncryption
         a4:80:86:2e:e7:a6:9d:8d:ff:82:57:63:72:e7:1a:60:df:ab:
         b2:b9:b2:01:12:67:38:40:e6:40:7c:58:bc:cc:48:71:5b:01:
         97:9c:79:1c:1e:71:d2:3b:a3:d8:e8:a2:e2:18:01:a5:45:a8:
         e3:f4:ef:ab:bb:8a:78:fc:c7:88:7d:f2:05:60:9a:db:70:c3:
         78:d5:ab:f8:2d:33:8c:6b:a2:f6:c9:03:c0:8a:3c:66:dd:9d:
         e8:ee:a7:4e:25:0f:14:df:f8:0f:16:2e:1e:17:a7:58:c8:d9:
         05:d3:98:a2:bc:64:42:53:fe:24:c9:75:aa:26:ee:6e:32:33:
         08:61:a0:36:7d:ca:bb:9d:bb:b5:71:5e:06:81:6a:ff:67:ee:
         a6:88:3f:b6:3f:d3:17:4c:ce:04:ce:b3:0b:75:39:d1:c0:e3:
         9c:b3:9a:a2:19:56:28:8b:96:a4:b3:9f:16:49:dc:84:20:22:
         ed:ef:72:4c:5f:10:aa:1f:09:01:3b:55:c8:c6:6c:af:a7:d2:
         2e:9e:ed:b0:cc:91:6d:64:c3:ec:18:be:3a:6a:4b:ae:01:2e:
         3f:79:cd:34:1c:38:ae:b9:0d:61:04:73:f7:9e:29:3b:a7:b6:
         90:3a:b8:2c:23:34:c3:b8:0c:06:51:c2:3e:21:99:9f:3c:14:
         90:ca:a9:26:f5:40:e3:22:e9:7d:ce:03:17:ec:ff:bc:d1:99:
         2e:c4:64:8f:3f:2c:59:60:24:3c:b0:db:c3:95:08:aa:00:75:
         b2:9d:0b:20:19:b4:f7:6e:a9:a3:bd:60:f0:33:0f:e2:66:bd:
         47:f6:08:8a:90:35:7d:45:86:4a:c9:9e:c4:cf:5f:df:71:de:
         cc:c9:6e:39:88:4d:b9:4a:cf:03:74:07:59:2b:ed:fc:eb:ee:
         d5:d2:d5:39:6d:77:0d:d8:d1:7f:2f:7e:77:be:61:98:8d:2c:
         52:71:30:84:be:a0:e6:b0:b0:07:08:c5:b4:74:b7:8b:b2:d8:
         ba:d8:00:f2:19:c7:f8:a1:22:0a:66:44:a8:16:08:75:5e:59:
         44:48:45:34:35:08:4a:f0:7b:25:0b:a6:4b:51:7f:77:cd:0d:
         33:38:ab:00:91:66:4c:88:c1:4e:2a:d4:3a:c0:b4:86:de:84:
         80:ca:50:6f:80:f9:4d:65:80:09:15:75:2d:22:56:e5:b5:91:
         23:9d:ee:25:d8:18:30:28:72:db:7f:c3:31:4e:8e:d8:be:43:
         fa:db:8e:9a:05:99:fd:f7:dc:94:89:a7:78:d8:9d:6b:e9:fe:
         f5:24:c7:ba:d2:e9:44:0f:83:4b:5d:9f:ff:24:18:9f:d1:d5:
         84:e8:21:49:b7:db:20:e7
-----BEGIN CERTIFICATE-----
MIIFcDCCA1igAwIBAgINAJgzyagAAAAAVlS8bjANBgkqhkiG9w0BAQsFADBDMQsw
CQYDVQQGEwJIUjEdMBsGA1UEChMURmluYW5jaWpza2EgYWdlbmNpamExFTATBgNV
BAMTDEZpbmEgUm9vdCBDQTAeFw0xNTExMjQxOTA3MzBaFw0zNTExMjQxOTM3MzBa
MEMxCzAJBgNVBAYTAkhSMR0wGwYDVQQKExRGaW5hbmNpanNrYSBhZ2VuY2lqYTEV
MBMGA1UEAxMMRmluYSBSb290IENBMIICIjANBgkqhkiG9w0BAQEFAAOCAg8AMIIC
CgKCAgEAtHPS1mXTAu9YOvSCgtOn4Ipgsjr1sWU4pyQOIWt96aCdM6J0za6RupS1
zMaAtXHfSHHKdUunv/8m64T+uXIWyMJ+htS/r+5jNbnA5NoFT7hIniIo/1UFI2uB
TrMXESwqJR/k4d9hyDzyVmnQVX2WELKoe1aQW6ZeU4tB48eHxzG9NDnsGSHZgMTo
DdvaAwwA9Kq1ggYlDMXZGmKd/QpJBfwcvpNG/M6Jkf/NzF9IX9w40HVv0i2rzCIS
eIgSH+DVTne8LIlNdnqIm10H2rNnmNE5znpGq8/2fVclE/qExANwrwx2DNJAJHxZ
33c3WVCxJUZOQh0IIglyVcRC6m9vZVnUTuA9o6twfOYJMFV2Yonzb9IKprNuGT2W
hnpmlM3yzHrwBwizaa4b/xxxGKJE+dvWDYQQgXRJYWLXEPABpkXAtdBS9FGGPeL3
Fila+kqeJ0uORvFyPqf1pAzgCxeaIv/5fqs1jgGE1XWTf+Z1qHpk3mI6AkcaoCPE
TD/Q3E4z52y7+vYYECs0MF/HM1CZAumxWUZVZaa6pIMYi83h8coY4tkg5reEhx8L
VnxNMVQm8plWyKZZ1oUz8pDMKFrIbKTLpkdGxJpVOYRkjXfnCj3D0BL3dqjMHLMf
WIU6xDaN7JrsDuccyZ9P+9B6BwzGBbCrjbpyXU4j2W8MXPimctECAwEAAaNjMGEw
DgYDVR0PAQH/BAQDAgEGMA8GA1UdEwEB/wQFMAMBAf8wHwYDVR0jBBgwFoAU/hGi
bBDu3uIDuFWCTiI8huQ+a1QwHQYDVR0OBBYEFP4RomwQ7t7iA7hVgk4iPIbkPmtU
MA0GCSqGSIb3DQEBCwUAA4ICAQCkgIYu56adjf+CV2Ny5xpg36uyubIBEmc4QOZA
fFi8zEhxWwGXnHkcHnHSO6PY6KLiGAGlRajj9O+ru4p4/MeIffIFYJrbcMN41av4
LTOMa6L2yQPAijxm3Z3o7qdOJQ8U3/gPFi4eF6dYyNkF05iivGRCU/4kyXWqJu5u
MjMIYaA2fcq7nbu1cV4GgWr/Z+6miD+2P9MXTM4EzrMLdTnRwOOcs5qiGVYoi5ak
s58WSdyEICLt73JMXxCqHwkBO1XIxmyvp9Iunu2wzJFtZMPsGL46akuuAS4/ec00
HDiuuQ1hBHP3nik7p7aQOrgsIzTDuAwGUcI+IZmfPBSQyqkm9UDjIul9zgMX7P+8
0ZkuxGSPPyxZYCQ8sNvDlQiqAHWynQsgGbT3bqmjvWDwMw/iZr1H9giKkDV9RYZK
yZ7Ez1/fcd7MyW45iE25Ss8DdAdZK+386+7V0tU5bXcN2NF/L353vmGYjSxScTCE
vqDmsLAHCMW0dLeLsti62ADyGcf4oSIKZkSoFgh1XllESEU0NQhK8HslC6ZLUX93
zQ0zOKsAkWZMiMFOKtQ6wLSG3oSAylBvgPlNZYAJFXUtIlbltZEjne4l2BgwKHLb
f8MxTo7YvkP6246aBZn999yUiad42J1r6f71JMe60ulED4NLXZ//JBif0dWE6CFJ
t9sg5w==
-----END CERTIFICATE-----
