Certificate:
    Data:
        Version: 3 (0x2)
        Serial Number:
            56:aa:0b:cb:00:00:00:00:56:54:bc:c1
    Signature Algorithm: sha256WithRSAEncryption
        Issuer: C=HR, O=Financijska agencija, CN=Fina Root CA
        Validity
            Not Before: Nov 25 10:13:30 2015 GMT
            Not After : Nov 25 10:43:30 2025 GMT
        Subject: C=HR, O=Financijska agencija, CN=Fina RDC 2015
        Subject Public Key Info:
            Public Key Algorithm: rsaEncryption
                Public-Key: (4096 bit)
                Modulus:
                    00:b7:89:3c:bb:03:1f:b2:99:2c:61:46:e5:56:24:
                    c4:76:cd:32:2d:67:16:ee:80:eb:96:83:05:53:5e:
                    22:59:92:b9:92:66:52:9e:ce:77:87:3e:8e:95:76:
                    9a:9b:9f:dc:30:bc:5d:a2:b2:29:b6:d9:49:8c:11:
                    3d:f1:53:24:7a:3b:d4:22:e1:2a:36:57:e9:9f:8c:
                    7e:98:4d:a8:f4:86:e3:91:3a:ef:26:a2:86:c7:56:
                    ed:6c:4c:61:41:b7:7c:32:24:c8:28:b1:d2:c0:65:
                    69:a3:b5:83:5d:28:1f:26:b9:e1:39:8a:09:98:d3:
                    32:af:0e:22:de:25:64:80:17:00:2e:49:4a:6f:cb:
                    d4:57:f1:d8:cb:b9:e7:97:eb:8d:ea:cb:61:f4:31:
                    39:0d:00:68:5f:29:60:68:df:51:81:e1:61:5b:1d:
                    d2:5a:52:d4:99:86:a0:43:df:4f:1e:73:fb:1b:a1:
                    0d:42:9b:6d:9c:ab:db:01:f0:27:81:0d:aa:6b:ed:
                    4e:d9:4c:04:a1:6e:4d:14:9a:1b:50:24:5f:35:ab:
                    57:6c:ff:1b:da:4f:32:e9:91:9b:7a:2e:45:0c:92:
                    36:7c:26:49:75:54:07:c1:3c:d0:43:43:bd:c6:18:
                    57:a4:bb:ed:8b:b7:c3:ce:0d:0b:12:f1:2d:b4:7f:
                    fc:0b:bf:d5:17:47:61:6c:c2:f6:09:9d:e2:2c:3f:
                    f6:f7:84:8e:a8:49:90:93:3d:e8:20:22:57:b8:c8:
                    ec:c8:da:8f:38:3c:a8:c4:8a:26:97:fa:84:0c:62:
                    80:91:56:a5:12:fe:37:6f:47:00:80:1d:0c:05:c7:
                    32:b6:32:6a:8b:93:b9:fd:e8:93:87:f0:7c:7e:1a:
                    53:0e:de:fd:42:3e:41:36:d4:96:c3:da:16:ec:2f:
                    ce:04:10:ea:25:0f:32:77:7e:0f:e3:af:45:51:f4:
                    e2:1c:40:66:3f:c8:b0:79:e9:2c:7b:e5:d7:ce:69:
                    a8:71:d1:f3:53:1d:b7:cc:38:09:f5:8d:43:a4:e5:
                    95:6c:a9:03:f8:bd:2b:77:f8:6b:ed:46:73:c3:27:
                    df:6d:8e:da:bc:75:92:da:02:36:7b:12:bc:90:4d:
                    57:b1:ec:7d:ad:68:41:c6:08:dd:b6:58:9a:a5:2c:
                    9d:ef:1c:e2:de:c6:ae:4d:5b:01:2e:78:b2:58:15:
                    3f:72:c5:d1:c0:ee:6f:b3:0d:93:90:15:0a:6b:07:
                    6f:c0:bf:15:73:5a:c5:f7:b4:7f:6d:e1:a4:9d:27:
                    bf:cc:2b:c8:87:d1:d0:be:47:04:48:2c:81:9b:9f:
                    aa:d7:0a:12:83:f0:e7:24:4b:fc:13:2f:64:38:05:
                    d6:dd:9f
                Exponent: 65537 (0x10001)
        X509v3 extensions:
            X509v3 Key Usage: critical
                Certificate Sign, CRL Sign
            X509v3 Basic Constraints: critical
                CA:TRUE, pathlen:0
            X509v3 Certificate Policies: 
                Policy: 1.3.124.1104.5.2.1
                  CPS: http://rdc.fina.hr/Root/FinaRootCA-CP1-0-hr.pdf
                  CPS: http://rdc.fina.hr/Root/FinaRootCA-CP1-0-en.pdf

            Authority Information Access: 
                OCSP - URI:http://ocsp.fina.hr
                CA Issuers - URI:http://rdc.fina.hr/Root/FinaRootCA.cer

            X509v3 CRL Distribution Points: 

                Full Name:
                  URI:http://rdc.fina.hr/Root/FinaRootCA.crl

                Full Name:
                  DirName: C = HR, O = Financijska agencija, CN = Fina Root CA, CN = CRL1

            X509v3 Authority Key Identifier: 
                keyid:FE:11:A2:6C:10:EE:DE:E2:03:B8:55:82:4E:22:3C:86:E4:3E:6B:54

            X509v3 Subject Key Identifier: 
                14:63:11:BB:7B:33:03:68:74:1C:15:ED:E6:2C:C1:3C:48:1B:98:21
    Signature Algorithm: sha256WithRSAEncryption
         b0:bc:b6:95:29:74:3b:36:89:90:c6:2c:f6:de:3b:66:12:d2:
         3f:bb:4e:8c:c8:ae:09:02:51:64:16:91:60:4d:17:0f:cf:a5:
         53:ee:c5:22:af:a9:8c:b0:28:86:66:0d:8e:d0:77:19:09:4f:
         a8:7e:3c:8b:d7:3b:cd:71:ac:ad:41:be:ff:16:18:7b:ce:0f:
         ae:fb:9c:6e:f4:ef:49:2b:a3:a4:8c:95:4f:5f:e9:bc:f2:d4:
         14:3a:3a:27:9c:85:d7:51:ad:ee:2f:96:e8:49:9b:65:2c:2a:
         86:ed:44:70:ca:9f:ad:ce:a6:4f:22:21:69:72:db:16:38:bc:
         b0:7e:fb:e9:ca:f6:b4:18:55:16:34:78:48:6f:5e:2d:88:89:
         df:e3:1d:89:d0:c0:be:6e:dd:25:a4:3b:a6:4d:3b:a5:50:a2:
         7f:7e:7f:58:ed:99:28:44:e7:e3:c1:89:7d:74:80:e0:b7:9d:
         07:37:12:f7:8a:9d:c8:a0:ce:91:e4:19:da:3c:2d:02:c0:07:
         63:96:0e:c0:40:a0:dd:60:8a:52:c0:b8:c8:ea:60:fe:81:42:
         c9:5f:93:40:3e:72:85:af:f6:6b:80:72:f8:f4:f9:c8:f1:cd:
         3d:c4:35:2d:5e:02:81:c8:28:29:13:eb:de:8d:fd:65:f7:47:
         f1:c9:d3:63:27:66:4d:a7:42:73:f1:99:0b:ff:5a:6f:8e:ff:
         e9:73:72:aa:03:dc:9f:3a:66:e8:58:37:5d:29:b6:91:96:1c:
         98:f0:8a:fc:29:96:29:2b:ad:0e:e4:ab:0c:29:73:19:1c:48:
         19:f4:35:1b:f5:b0:95:0d:b5:70:09:f6:8d:6c:b4:e8:46:02:
         32:9b:9a:b4:e3:43:88:a7:68:1a:cb:3c:a1:07:bd:2c:9e:ea:
         96:a8:23:c4:c9:e0:61:95:aa:b3:5b:2c:af:8d:bd:3a:58:43:
         16:69:3f:a5:c4:5d:6b:74:38:24:82:e9:89:7f:d1:a6:2e:cb:
         3d:78:36:ab:72:8e:49:ac:98:6e:71:93:2b:c3:43:b2:73:ff:
         19:f1:7e:8b:7c:b4:37:fb:f2:32:0a:c7:68:22:9e:b0:98:f4:
         a7:8f:e7:97:72:d1:36:d4:c9:e1:32:23:c6:66:57:25:cb:97:
         72:47:33:a4:1e:88:fd:ba:b5:46:8b:44:00:bf:9b:22:62:4d:
         65:be:e2:fe:f5:40:19:6c:83:7d:24:92:1c:2f:d4:22:c5:74:
         be:41:fa:a0:b8:c8:8b:a2:40:0d:ad:4a:70:df:f7:a0:85:95:
         f9:70:63:c2:38:f4:bd:12:63:c2:26:e7:9e:b3:15:a1:56:24:
         06:98:44:18:ad:9c:69:f8
-----BEGIN CERTIFICATE-----
MIIHCjCCBPKgAwIBAgIMVqoLywAAAABWVLzBMA0GCSqGSIb3DQEBCwUAMEMxCzAJ
BgNVBAYTAkhSMR0wGwYDVQQKExRGaW5hbmNpanNrYSBhZ2VuY2lqYTEVMBMGA1UE
AxMMRmluYSBSb290IENBMB4XDTE1MTEyNTEwMTMzMFoXDTI1MTEyNTEwNDMzMFow
RDELMAkGA1UEBhMCSFIxHTAbBgNVBAoTFEZpbmFuY2lqc2thIGFnZW5jaWphMRYw
FAYDVQQDEw1GaW5hIFJEQyAyMDE1MIICIjANBgkqhkiG9w0BAQEFAAOCAg8AMIIC
CgKCAgEAt4k8uwMfspksYUblViTEds0yLWcW7oDrloMFU14iWZK5kmZSns53hz6O
lXaam5/cMLxdorIpttlJjBE98VMkejvUIuEqNlfpn4x+mE2o9IbjkTrvJqKGx1bt
bExhQbd8MiTIKLHSwGVpo7WDXSgfJrnhOYoJmNMyrw4i3iVkgBcALklKb8vUV/HY
y7nnl+uN6sth9DE5DQBoXylgaN9RgeFhWx3SWlLUmYagQ99PHnP7G6ENQpttnKvb
AfAngQ2qa+1O2UwEoW5NFJobUCRfNatXbP8b2k8y6ZGbei5FDJI2fCZJdVQHwTzQ
Q0O9xhhXpLvti7fDzg0LEvEttH/8C7/VF0dhbML2CZ3iLD/294SOqEmQkz3oICJX
uMjsyNqPODyoxIoml/qEDGKAkValEv43b0cAgB0MBccytjJqi5O5/eiTh/B8fhpT
Dt79Qj5BNtSWw9oW7C/OBBDqJQ8yd34P469FUfTiHEBmP8iweekse+XXzmmocdHz
Ux23zDgJ9Y1DpOWVbKkD+L0rd/hr7UZzwyffbY7avHWS2gI2exK8kE1Xsex9rWhB
xgjdtliapSyd7xzi3sauTVsBLniyWBU/csXRwO5vsw2TkBUKawdvwL8Vc1rF97R/
beGknSe/zCvIh9HQvkcESCyBm5+q1woSg/DnJEv8Ey9kOAXW3Z8CAwEAAaOCAfsw
ggH3MA4GA1UdDwEB/wQEAwIBBjASBgNVHRMBAf8ECDAGAQH/AgEAMIGTBgNVHSAE
gYswgYgwgYUGByt8iFAFAgEwejA7BggrBgEFBQcCARYvaHR0cDovL3JkYy5maW5h
LmhyL1Jvb3QvRmluYVJvb3RDQS1DUDEtMC1oci5wZGYwOwYIKwYBBQUHAgEWL2h0
dHA6Ly9yZGMuZmluYS5oci9Sb290L0ZpbmFSb290Q0EtQ1AxLTAtZW4ucGRmMGMG
CCsGAQUFBwEBBFcwVTAfBggrBgEFBQcwAYYTaHR0cDovL29jc3AuZmluYS5ocjAy
BggrBgEFBQcwAoYmaHR0cDovL3JkYy5maW5hLmhyL1Jvb3QvRmluYVJvb3RDQS5j
ZXIwgZUGA1UdHwSBjTCBijAsoCqgKIYmaHR0cDovL3JkYy5maW5hLmhyL1Jvb3Qv
RmluYVJvb3RDQS5jcmwwWqBYoFakVDBSMQswCQYDVQQGEwJIUjEdMBsGA1UEChMU
RmluYW5jaWpza2EgYWdlbmNpamExFTATBgNVBAMTDEZpbmEgUm9vdCBDQTENMAsG
A1UEAxMEQ1JMMTAfBgNVHSMEGDAWgBT+EaJsEO7e4gO4VYJOIjyG5D5rVDAdBgNV
HQ4EFgQUFGMRu3szA2h0HBXt5izBPEgbmCEwDQYJKoZIhvcNAQELBQADggIBALC8
tpUpdDs2iZDGLPbeO2YS0j+7TozIrgkCUWQWkWBNFw/PpVPuxSKvqYywKIZmDY7Q
dxkJT6h+PIvXO81xrK1Bvv8WGHvOD677nG7070kro6SMlU9f6bzy1BQ6OiechddR
re4vluhJm2UsKobtRHDKn63Opk8iIWly2xY4vLB+++nK9rQYVRY0eEhvXi2Iid/j
HYnQwL5u3SWkO6ZNO6VQon9+f1jtmShE5+PBiX10gOC3nQc3EveKncigzpHkGdo8
LQLAB2OWDsBAoN1gilLAuMjqYP6BQslfk0A+coWv9muAcvj0+cjxzT3ENS1eAoHI
KCkT696N/WX3R/HJ02MnZk2nQnPxmQv/Wm+O/+lzcqoD3J86ZuhYN10ptpGWHJjw
ivwplikrrQ7kqwwpcxkcSBn0NRv1sJUNtXAJ9o1stOhGAjKbmrTjQ4inaBrLPKEH
vSye6paoI8TJ4GGVqrNbLK+NvTpYQxZpP6XEXWt0OCSC6Yl/0aYuyz14Nqtyjkms
mG5xkyvDQ7Jz/xnxfot8tDf78jIKx2ginrCY9KeP55dy0TbUyeEyI8ZmVyXLl3JH
M6QeiP26tUaLRAC/myJiTWW+4v71QBlsg30kkhwv1CLFdL5B+qC4yIuiQA2tSnDf
96CFlflwY8I49L0SY8Im556zFaFWJAaYRBitnGn4
-----END CERTIFICATE-----
